target datalayout = "e-m:e-p270:32:32-p271:32:32-p272:64:64-i64:64-i128:128-f80:128-n8:16:32:64-S128"
target triple = "x86_64-pc-linux-gnu"

%"struct.duckdb_lz4::LZ4_stream_t_internal" = type { [4096 x i32], ptr, ptr, i32, i32, i32 }

; Function Attrs: mustprogress nounwind uwtable
define internal void @_ZN10duckdb_lz4L15LZ4_renormDictTEPNS_21LZ4_stream_t_internalEi(ptr noundef %0, i32 noundef %1) #0 {
  %3 = alloca ptr, align 8
  %4 = alloca i32, align 4
  %5 = alloca i32, align 4
  %6 = alloca ptr, align 8
  %7 = alloca i32, align 4
  store ptr %0, ptr %3, align 8, !tbaa !11
  store i32 %1, ptr %4, align 4, !tbaa !3
  %8 = load ptr, ptr %3, align 8, !tbaa !11
  %9 = getelementptr inbounds nuw %"struct.duckdb_lz4::LZ4_stream_t_internal", ptr %8, i32 0, i32 3
  %10 = load i32, ptr %9, align 8, !tbaa !26
  %11 = load i32, ptr %4, align 4, !tbaa !3
  %12 = add i32 %10, %11
  %13 = icmp ugt i32 %12, -2147483648
  br i1 %13, label %14, label %78

14:                                               ; preds = %2
  call void @llvm.lifetime.start.p0(i64 4, ptr %5) #9
  %15 = load ptr, ptr %3, align 8, !tbaa !11
  %16 = getelementptr inbounds nuw %"struct.duckdb_lz4::LZ4_stream_t_internal", ptr %15, i32 0, i32 3
  %17 = load i32, ptr %16, align 8, !tbaa !26
  %18 = sub i32 %17, 65536
  store i32 %18, ptr %5, align 4, !tbaa !3
  call void @llvm.lifetime.start.p0(i64 8, ptr %6) #9
  %19 = load ptr, ptr %3, align 8, !tbaa !11
  %20 = getelementptr inbounds nuw %"struct.duckdb_lz4::LZ4_stream_t_internal", ptr %19, i32 0, i32 1
  %21 = load ptr, ptr %20, align 8, !tbaa !30
  %22 = load ptr, ptr %3, align 8, !tbaa !11
  %23 = getelementptr inbounds nuw %"struct.duckdb_lz4::LZ4_stream_t_internal", ptr %22, i32 0, i32 5
  %24 = load i32, ptr %23, align 8, !tbaa !31
  %25 = zext i32 %24 to i64
  %26 = getelementptr inbounds nuw i8, ptr %21, i64 %25
  store ptr %26, ptr %6, align 8, !tbaa !9
  call void @llvm.lifetime.start.p0(i64 4, ptr %7) #9
  store i32 0, ptr %7, align 4, !tbaa !3
  br label %27

27:                                               ; preds = %55, %14
  %28 = load i32, ptr %7, align 4, !tbaa !3
  %29 = icmp slt i32 %28, 4096
  br i1 %29, label %30, label %58

30:                                               ; preds = %27
  %31 = load ptr, ptr %3, align 8, !tbaa !11
  %32 = getelementptr inbounds nuw %"struct.duckdb_lz4::LZ4_stream_t_internal", ptr %31, i32 0, i32 0
  %33 = load i32, ptr %7, align 4, !tbaa !3
  %34 = sext i32 %33 to i64
  %35 = getelementptr inbounds [4096 x i32], ptr %32, i64 0, i64 %34
  %36 = load i32, ptr %35, align 4, !tbaa !3
  %37 = load i32, ptr %5, align 4, !tbaa !3
  %38 = icmp ult i32 %36, %37
  br i1 %38, label %39, label %45

39:                                               ; preds = %30
  %40 = load ptr, ptr %3, align 8, !tbaa !11
  %41 = getelementptr inbounds nuw %"struct.duckdb_lz4::LZ4_stream_t_internal", ptr %40, i32 0, i32 0
  %42 = load i32, ptr %7, align 4, !tbaa !3
  %43 = sext i32 %42 to i64
  %44 = getelementptr inbounds [4096 x i32], ptr %41, i64 0, i64 %43
  store i32 0, ptr %44, align 4, !tbaa !3
  br label %54

45:                                               ; preds = %30
  %46 = load i32, ptr %5, align 4, !tbaa !3
  %47 = load ptr, ptr %3, align 8, !tbaa !11
  %48 = getelementptr inbounds nuw %"struct.duckdb_lz4::LZ4_stream_t_internal", ptr %47, i32 0, i32 0
  %49 = load i32, ptr %7, align 4, !tbaa !3
  %50 = sext i32 %49 to i64
  %51 = getelementptr inbounds [4096 x i32], ptr %48, i64 0, i64 %50
  %52 = load i32, ptr %51, align 4, !tbaa !3
  %53 = sub i32 %52, %46
  store i32 %53, ptr %51, align 4, !tbaa !3
  br label %54

54:                                               ; preds = %45, %39
  br label %55

55:                                               ; preds = %54
  %56 = load i32, ptr %7, align 4, !tbaa !3
  %57 = add nsw i32 %56, 1
  store i32 %57, ptr %7, align 4, !tbaa !3
  br label %27, !llvm.loop !36

58:                                               ; preds = %27
  %59 = load ptr, ptr %3, align 8, !tbaa !11
  %60 = getelementptr inbounds nuw %"struct.duckdb_lz4::LZ4_stream_t_internal", ptr %59, i32 0, i32 3
  store i32 65536, ptr %60, align 8, !tbaa !26
  %61 = load ptr, ptr %3, align 8, !tbaa !11
  %62 = getelementptr inbounds nuw %"struct.duckdb_lz4::LZ4_stream_t_internal", ptr %61, i32 0, i32 5
  %63 = load i32, ptr %62, align 8, !tbaa !31
  %64 = icmp ugt i32 %63, 65536
  br i1 %64, label %65, label %68

65:                                               ; preds = %58
  %66 = load ptr, ptr %3, align 8, !tbaa !11
  %67 = getelementptr inbounds nuw %"struct.duckdb_lz4::LZ4_stream_t_internal", ptr %66, i32 0, i32 5
  store i32 65536, ptr %67, align 8, !tbaa !31
  br label %68

68:                                               ; preds = %65, %58
  %69 = load ptr, ptr %6, align 8, !tbaa !9
  %70 = load ptr, ptr %3, align 8, !tbaa !11
  %71 = getelementptr inbounds nuw %"struct.duckdb_lz4::LZ4_stream_t_internal", ptr %70, i32 0, i32 5
  %72 = load i32, ptr %71, align 8, !tbaa !31
  %73 = zext i32 %72 to i64
  %74 = sub i64 0, %73
  %75 = getelementptr inbounds i8, ptr %69, i64 %74
  %76 = load ptr, ptr %3, align 8, !tbaa !11
  %77 = getelementptr inbounds nuw %"struct.duckdb_lz4::LZ4_stream_t_internal", ptr %76, i32 0, i32 1
  store ptr %75, ptr %77, align 8, !tbaa !30
  call void @llvm.lifetime.end.p0(i64 4, ptr %7) #9
  call void @llvm.lifetime.end.p0(i64 8, ptr %6) #9
  call void @llvm.lifetime.end.p0(i64 4, ptr %5) #9
  br label %78

78:                                               ; preds = %68, %2
  ret void
}

; Function Attrs: mustprogress uwtable
define noundef i32 @_ZN10duckdb_lz425LZ4_compress_forceExtDictEPNS_12LZ4_stream_uEPKcPci(ptr noundef %0, ptr noundef %1, ptr noundef %2, i32 noundef %3) #1 {
  %5 = alloca ptr, align 8
  %6 = alloca ptr, align 8
  %7 = alloca ptr, align 8
  %8 = alloca i32, align 4
  %9 = alloca ptr, align 8
  %10 = alloca i32, align 4
  store ptr %0, ptr %5, align 8, !tbaa !32
  store ptr %1, ptr %6, align 8, !tbaa !9
  store ptr %2, ptr %7, align 8, !tbaa !9
  store i32 %3, ptr %8, align 4, !tbaa !3
  call void @llvm.lifetime.start.p0(i64 8, ptr %9) #9
  %11 = load ptr, ptr %5, align 8, !tbaa !32
  store ptr %11, ptr %9, align 8, !tbaa !11
  call void @llvm.lifetime.start.p0(i64 4, ptr %10) #9
  %12 = load ptr, ptr %9, align 8, !tbaa !11
  %13 = load i32, ptr %8, align 4, !tbaa !3
  call void @_ZN10duckdb_lz4L15LZ4_renormDictTEPNS_21LZ4_stream_t_internalEi(ptr noundef %12, i32 noundef %13)
  %14 = load ptr, ptr %9, align 8, !tbaa !11
  %15 = getelementptr inbounds nuw %"struct.duckdb_lz4::LZ4_stream_t_internal", ptr %14, i32 0, i32 5
  %16 = load i32, ptr %15, align 8, !tbaa !31
  %17 = icmp ult i32 %16, 65536
  br i1 %17, label %18, label %32

18:                                               ; preds = %4
  %19 = load ptr, ptr %9, align 8, !tbaa !11
  %20 = getelementptr inbounds nuw %"struct.duckdb_lz4::LZ4_stream_t_internal", ptr %19, i32 0, i32 5
  %21 = load i32, ptr %20, align 8, !tbaa !31
  %22 = load ptr, ptr %9, align 8, !tbaa !11
  %23 = getelementptr inbounds nuw %"struct.duckdb_lz4::LZ4_stream_t_internal", ptr %22, i32 0, i32 3
  %24 = load i32, ptr %23, align 8, !tbaa !26
  %25 = icmp ult i32 %21, %24
  br i1 %25, label %26, label %32

26:                                               ; preds = %18
  %27 = load ptr, ptr %9, align 8, !tbaa !11
  %28 = load ptr, ptr %6, align 8, !tbaa !9
  %29 = load ptr, ptr %7, align 8, !tbaa !9
  %30 = load i32, ptr %8, align 4, !tbaa !3
  %31 = call noundef i32 @_ZN10duckdb_lz4L20LZ4_compress_genericEPNS_21LZ4_stream_t_internalEPKcPciPiiNS_23limitedOutput_directiveENS_11tableType_tENS_14dict_directiveENS_19dictIssue_directiveEi(ptr noundef %27, ptr noundef %28, ptr noundef %29, i32 noundef %30, ptr noundef null, i32 noundef 0, i32 noundef 0, i32 noundef 2, i32 noundef 2, i32 noundef 1, i32 noundef 1)
  store i32 %31, ptr %10, align 4, !tbaa !3
  br label %38

32:                                               ; preds = %18, %4
  %33 = load ptr, ptr %9, align 8, !tbaa !11
  %34 = load ptr, ptr %6, align 8, !tbaa !9
  %35 = load ptr, ptr %7, align 8, !tbaa !9
  %36 = load i32, ptr %8, align 4, !tbaa !3
  %37 = call noundef i32 @_ZN10duckdb_lz4L20LZ4_compress_genericEPNS_21LZ4_stream_t_internalEPKcPciPiiNS_23limitedOutput_directiveENS_11tableType_tENS_14dict_directiveENS_19dictIssue_directiveEi(ptr noundef %33, ptr noundef %34, ptr noundef %35, i32 noundef %36, ptr noundef null, i32 noundef 0, i32 noundef 0, i32 noundef 2, i32 noundef 2, i32 noundef 0, i32 noundef 1)
  store i32 %37, ptr %10, align 4, !tbaa !3
  br label %38

38:                                               ; preds = %32, %26
  %39 = load ptr, ptr %6, align 8, !tbaa !9
  %40 = load ptr, ptr %9, align 8, !tbaa !11
  %41 = getelementptr inbounds nuw %"struct.duckdb_lz4::LZ4_stream_t_internal", ptr %40, i32 0, i32 1
  store ptr %39, ptr %41, align 8, !tbaa !30
  %42 = load i32, ptr %8, align 4, !tbaa !3
  %43 = load ptr, ptr %9, align 8, !tbaa !11
  %44 = getelementptr inbounds nuw %"struct.duckdb_lz4::LZ4_stream_t_internal", ptr %43, i32 0, i32 5
  store i32 %42, ptr %44, align 8, !tbaa !31
  %45 = load i32, ptr %10, align 4, !tbaa !3
  call void @llvm.lifetime.end.p0(i64 4, ptr %10) #9
  call void @llvm.lifetime.end.p0(i64 8, ptr %9) #9
  ret i32 %45
}