; Function Attrs: mustprogress nofree norecurse nosync nounwind memory(readwrite, inaccessiblemem: none) uwtable
define noundef i32 @_ZN10duckdb_lz425LZ4_compress_forceExtDictEPNS_12LZ4_stream_uEPKcPci(ptr noundef captures(none) %0, ptr noundef %1, ptr noundef %2, i32 noundef %3) local_unnamed_addr #1 {
  %5 = getelementptr inbounds nuw i8, ptr %0, i64 16400
  %6 = load i32, ptr %5, align 8, !tbaa !8
  %7 = add i32 %6, %3
  %8 = icmp ugt i32 %7, -2147483648
  br i1 %8, label %9, label %._ZN10duckdb_lz4L15LZ4_renormDictTEPNS_21LZ4_stream_t_internalEi.exit_crit_edge

._ZN10duckdb_lz4L15LZ4_renormDictTEPNS_21LZ4_stream_t_internalEi.exit_crit_edge: ; preds = %4
  %.phi.trans.insert = getelementptr inbounds nuw i8, ptr %0, i64 16408
  %.pre = load i32, ptr %.phi.trans.insert, align 8, !tbaa !15
  br label %_ZN10duckdb_lz4L15LZ4_renormDictTEPNS_21LZ4_stream_t_internalEi.exit

9:                                                ; preds = %4
  %10 = add i32 %6, -65536
  %11 = getelementptr inbounds nuw i8, ptr %0, i64 16384
  %12 = load ptr, ptr %11, align 8, !tbaa !14
  %13 = getelementptr inbounds nuw i8, ptr %0, i64 16408
  %14 = load i32, ptr %13, align 8, !tbaa !15
  br label %15

15:                                               ; preds = %15, %9
  %indvars.iv.i = phi i64 [ 0, %9 ], [ %indvars.iv.next.i, %15 ]
  %16 = getelementptr inbounds nuw [4096 x i32], ptr %0, i64 0, i64 %indvars.iv.i
  %17 = load i32, ptr %16, align 4, !tbaa !6
  %storemerge.i = tail call i32 @llvm.usub.sat.i32(i32 %17, i32 %10)
  store i32 %storemerge.i, ptr %16, align 4, !tbaa !6
  %indvars.iv.next.i = add nuw nsw i64 %indvars.iv.i, 1
  %exitcond.not.i = icmp eq i64 %indvars.iv.next.i, 4096
  br i1 %exitcond.not.i, label %18, label %15, !llvm.loop !29

18:                                               ; preds = %15
  %19 = zext i32 %14 to i64
  %20 = getelementptr inbounds nuw i8, ptr %12, i64 %19
  store i32 65536, ptr %5, align 8, !tbaa !8
  %21 = load i32, ptr %13, align 8, !tbaa !15
  %22 = icmp ugt i32 %21, 65536
  br i1 %22, label %23, label %24

23:                                               ; preds = %18
  store i32 65536, ptr %13, align 8, !tbaa !15
  br label %24

24:                                               ; preds = %23, %18
  %25 = phi i32 [ 65536, %23 ], [ %21, %18 ]
  %26 = zext nneg i32 %25 to i64
  %27 = sub nsw i64 0, %26
  %28 = getelementptr inbounds i8, ptr %20, i64 %27
  store ptr %28, ptr %11, align 8, !tbaa !14
  br label %_ZN10duckdb_lz4L15LZ4_renormDictTEPNS_21LZ4_stream_t_internalEi.exit

_ZN10duckdb_lz4L15LZ4_renormDictTEPNS_21LZ4_stream_t_internalEi.exit: ; preds = %._ZN10duckdb_lz4L15LZ4_renormDictTEPNS_21LZ4_stream_t_internalEi.exit_crit_edge, %24
  %29 = phi i32 [ %6, %._ZN10duckdb_lz4L15LZ4_renormDictTEPNS_21LZ4_stream_t_internalEi.exit_crit_edge ], [ 65536, %24 ]
  %30 = phi i32 [ %.pre, %._ZN10duckdb_lz4L15LZ4_renormDictTEPNS_21LZ4_stream_t_internalEi.exit_crit_edge ], [ %25, %24 ]
  %31 = icmp ult i32 %30, 65536
  %32 = icmp ult i32 %30, %29
  %or.cond = and i1 %31, %32
  %. = zext i1 %or.cond to i32
  %33 = tail call fastcc noundef i32 @_ZN10duckdb_lz4L20LZ4_compress_genericEPNS_21LZ4_stream_t_internalEPKcPciPiiNS_23limitedOutput_directiveENS_11tableType_tENS_14dict_directiveENS_19dictIssue_directiveEi(ptr noundef nonnull %0, ptr noundef %1, ptr noundef %2, i32 noundef %3, ptr noundef null, i32 noundef 0, i32 noundef 0, i32 noundef 2, i32 noundef 2, i32 noundef %., i32 noundef 1)
  %34 = getelementptr inbounds nuw i8, ptr %0, i64 16408
  %35 = getelementptr inbounds nuw i8, ptr %0, i64 16384
  store ptr %1, ptr %35, align 8, !tbaa !14
  store i32 %3, ptr %34, align 8, !tbaa !15
  ret i32 %33
}